; ModuleID = '34/1473.c'
source_filename = "34/1473.c"
target datalayout = "e-m:e-p270:32:32-p271:32:32-p272:64:64-i64:64-f80:128-n8:16:32:64-S128"
target triple = "x86_64-pc-linux-gnu"

@.str = private unnamed_addr constant [3 x i8] c"%d\00", align 1
@.str.1 = private unnamed_addr constant [4 x i8] c"End\00", align 1
@.str.2 = private unnamed_addr constant [11 x i8] c"%d*3+1=%d\0A\00", align 1
@.str.3 = private unnamed_addr constant [9 x i8] c"%d/2=%d\0A\00", align 1

; Function Attrs: noinline nounwind uwtable
define dso_local i32 @main() #0 {
  %1 = alloca i32, align 4
  %2 = alloca i32, align 4
  store i32 0, i32* %1, align 4
  %3 = call i32 (i8*, ...) @__isoc99_scanf(i8* getelementptr inbounds ([3 x i8], [3 x i8]* @.str, i64 0, i64 0), i32* %2)
  %4 = load i32, i32* %2, align 4
  %5 = call i32 @jiaogu(i32 %4)
  ret i32 0
}

declare dso_local i32 @__isoc99_scanf(i8*, ...) #1

; Function Attrs: noinline nounwind uwtable
define dso_local i32 @jiaogu(i32 %0) #0 {
  %2 = alloca i32, align 4
  %3 = alloca i32, align 4
  %4 = alloca i32, align 4
  store i32 %0, i32* %3, align 4
  %5 = load i32, i32* %3, align 4
  %6 = icmp eq i32 %5, 1
  br i1 %6, label %7, label %9

7:                                                ; preds = %1
  %8 = call i32 (i8*, ...) @printf(i8* getelementptr inbounds ([4 x i8], [4 x i8]* @.str.1, i64 0, i64 0))
  br label %36

9:                                                ; preds = %1
  %10 = load i32, i32* %3, align 4
  %11 = srem i32 %10, 2
  %12 = icmp eq i32 %11, 1
  br i1 %12, label %13, label %22

13:                                               ; preds = %9
  %14 = load i32, i32* %3, align 4
  %15 = mul nsw i32 %14, 3
  %16 = add nsw i32 %15, 1
  store i32 %16, i32* %4, align 4
  %17 = load i32, i32* %3, align 4
  %18 = load i32, i32* %4, align 4
  %19 = call i32 (i8*, ...) @printf(i8* getelementptr inbounds ([11 x i8], [11 x i8]* @.str.2, i64 0, i64 0), i32 %17, i32 %18)
  %20 = load i32, i32* %4, align 4
  %21 = call i32 @jiaogu(i32 %20)
  store i32 %21, i32* %2, align 4
  br label %36

22:                                               ; preds = %9
  %23 = load i32, i32* %3, align 4
  %24 = srem i32 %23, 2
  %25 = icmp eq i32 %24, 0
  br i1 %25, label %26, label %34

26:                                               ; preds = %22
  %27 = load i32, i32* %3, align 4
  %28 = sdiv i32 %27, 2
  store i32 %28, i32* %4, align 4
  %29 = load i32, i32* %3, align 4
  %30 = load i32, i32* %4, align 4
  %31 = call i32 (i8*, ...) @printf(i8* getelementptr inbounds ([9 x i8], [9 x i8]* @.str.3, i64 0, i64 0), i32 %29, i32 %30)
  %32 = load i32, i32* %4, align 4
  %33 = call i32 @jiaogu(i32 %32)
  store i32 %33, i32* %2, align 4
  br label %36

34:                                               ; preds = %22
  br label %35

35:                                               ; preds = %34
  br label %36

36:                                               ; preds = %13, %26, %35, %7
  %37 = load i32, i32* %2, align 4
  ret i32 %37
}

declare dso_local i32 @printf(i8*, ...) #1


!llvm.module.flags = !{!0}
!llvm.ident = !{!1}

!0 = !{i32 1, !"wchar_size", i32 4}
!1 = !{!"clang version 10.0.0-4ubuntu1 "}
